; Function Attrs: mustprogress nounwind uwtable
define dso_local void @_ZN4llvm2gi11MIFlagsInfo10addSetFlagEPKNS_6RecordE(ptr noundef nonnull align 8 dereferenceable(120) %0, ptr noundef nonnull %1) local_unnamed_addr #0 align 2 {
  %3 = alloca %"class.llvm::StringRef", align 8
  %4 = tail call { ptr, i64 } @_ZNK4llvm6Record16getValueAsStringENS_9StringRefE(ptr noundef nonnull align 8 dereferenceable(192) %1, ptr nonnull @.str.49, i64 8) #25
  %5 = extractvalue { ptr, i64 } %4, 0
  store ptr %5, ptr %3, align 8
  %6 = getelementptr inbounds nuw i8, ptr %3, i64 8
  %7 = extractvalue { ptr, i64 } %4, 1
  store i64 %7, ptr %6, align 8
  %8 = call noundef zeroext i1 @_ZN4llvm9SetVectorINS_9StringRefENS_11SmallVectorIS1_Lj0EEENS_8DenseSetIS1_NS_12DenseMapInfoIS1_vEEEELj0EE6insertERKS1_(ptr noundef nonnull align 8 dereferenceable(40) %0, ptr noundef nonnull align 8 dereferenceable(16) %3)
  ret void
}